target datalayout = "e-m:e-p270:32:32-p271:32:32-p272:64:64-i64:64-i128:128-f80:128-n8:16:32:64-S128"
target triple = "x86_64-pc-linux-gnu"

; Function Attrs: nounwind uwtable
define internal void @spatial_compensation_5(ptr noalias noundef %0, ptr noalias noundef %1, i64 noundef %2) #1 {
  %4 = alloca ptr, align 8
  %5 = alloca ptr, align 8
  %6 = alloca i64, align 8
  %7 = alloca i32, align 4
  %8 = alloca i32, align 4
  store ptr %0, ptr %4, align 8, !tbaa !14
  store ptr %1, ptr %5, align 8, !tbaa !14
  store i64 %2, ptr %6, align 8, !tbaa !16
  call void @llvm.lifetime.start.p0(i64 4, ptr %7) #6
  call void @llvm.lifetime.start.p0(i64 4, ptr %8) #6
  store i32 0, ptr %8, align 4, !tbaa !18
  br label %9

9:                                                ; preds = %59, %3
  %10 = load i32, ptr %8, align 4, !tbaa !18
  %11 = icmp slt i32 %10, 8
  br i1 %11, label %12, label %62

12:                                               ; preds = %9
  store i32 0, ptr %7, align 4, !tbaa !18
  br label %13

13:                                               ; preds = %52, %12
  %14 = load i32, ptr %7, align 4, !tbaa !18
  %15 = icmp slt i32 %14, 8
  br i1 %15, label %16, label %55

16:                                               ; preds = %13
  %17 = load i32, ptr %7, align 4, !tbaa !18
  %18 = mul nsw i32 2, %17
  %19 = load i32, ptr %8, align 4, !tbaa !18
  %20 = sub nsw i32 %18, %19
  %21 = icmp slt i32 %20, 0
  br i1 %21, label %22, label %36

22:                                               ; preds = %16
  %23 = load ptr, ptr %4, align 8, !tbaa !14
  %24 = load i32, ptr %7, align 4, !tbaa !18
  %25 = mul nsw i32 2, %24
  %26 = add nsw i32 17, %25
  %27 = load i32, ptr %8, align 4, !tbaa !18
  %28 = sub nsw i32 %26, %27
  %29 = sext i32 %28 to i64
  %30 = getelementptr inbounds i8, ptr %23, i64 %29
  %31 = load i8, ptr %30, align 1, !tbaa !22
  %32 = load ptr, ptr %5, align 8, !tbaa !14
  %33 = load i32, ptr %7, align 4, !tbaa !18
  %34 = sext i32 %33 to i64
  %35 = getelementptr inbounds i8, ptr %32, i64 %34
  store i8 %31, ptr %35, align 1, !tbaa !22
  br label %51

36:                                               ; preds = %16
  %37 = load ptr, ptr %4, align 8, !tbaa !14
  %38 = load i32, ptr %7, align 4, !tbaa !18
  %39 = add nsw i32 17, %38
  %40 = load i32, ptr %8, align 4, !tbaa !18
  %41 = add nsw i32 %40, 1
  %42 = ashr i32 %41, 1
  %43 = sub nsw i32 %39, %42
  %44 = sext i32 %43 to i64
  %45 = getelementptr inbounds i8, ptr %37, i64 %44
  %46 = load i8, ptr %45, align 1, !tbaa !22
  %47 = load ptr, ptr %5, align 8, !tbaa !14
  %48 = load i32, ptr %7, align 4, !tbaa !18
  %49 = sext i32 %48 to i64
  %50 = getelementptr inbounds i8, ptr %47, i64 %49
  store i8 %46, ptr %50, align 1, !tbaa !22
  br label %51

51:                                               ; preds = %36, %22
  br label %52

52:                                               ; preds = %51
  %53 = load i32, ptr %7, align 4, !tbaa !18
  %54 = add nsw i32 %53, 1
  store i32 %54, ptr %7, align 4, !tbaa !18
  br label %13, !llvm.loop !45

55:                                               ; preds = %13
  %56 = load i64, ptr %6, align 8, !tbaa !16
  %57 = load ptr, ptr %5, align 8, !tbaa !14
  %58 = getelementptr inbounds i8, ptr %57, i64 %56
  store ptr %58, ptr %5, align 8, !tbaa !14
  br label %59

59:                                               ; preds = %55
  %60 = load i32, ptr %8, align 4, !tbaa !18
  %61 = add nsw i32 %60, 1
  store i32 %61, ptr %8, align 4, !tbaa !18
  br label %9, !llvm.loop !46

62:                                               ; preds = %9
  call void @llvm.lifetime.end.p0(i64 4, ptr %8) #6
  call void @llvm.lifetime.end.p0(i64 4, ptr %7) #6
  ret void
}