; Function Attrs: nofree norecurse nosync nounwind memory(argmem: readwrite) uwtable
define internal void @spatial_compensation_5(ptr noalias noundef readonly captures(none) %0, ptr noalias noundef writeonly captures(none) %1, i64 noundef %2) #1 {
  %invariant.gep = getelementptr i8, ptr %0, i64 17
  br label %.preheader

.preheader:                                       ; preds = %3, %12
  %indvars.iv26 = phi i64 [ 0, %3 ], [ %indvars.iv.next27, %12 ]
  %.01820 = phi ptr [ %1, %3 ], [ %13, %12 ]
  %indvars.iv.next27 = add nuw nsw i64 %indvars.iv26, 1
  %4 = lshr i64 %indvars.iv.next27, 1
  %5 = and i64 %4, 2147483647
  br label %6

6:                                                ; preds = %.preheader, %6
  %indvars.iv = phi i64 [ 0, %.preheader ], [ %indvars.iv.next, %6 ]
  %7 = shl nuw nsw i64 %indvars.iv, 1
  %8 = icmp samesign ult i64 %7, %indvars.iv26
  %9 = sub nsw i64 %7, %indvars.iv26
  %10 = sub nsw i64 %indvars.iv, %5
  %.pn30 = select i1 %8, i64 %9, i64 %10
  %gep = getelementptr i8, ptr %invariant.gep, i64 %.pn30
  %.sink = load i8, ptr %gep, align 1, !tbaa !14
  %11 = getelementptr inbounds nuw i8, ptr %.01820, i64 %indvars.iv
  store i8 %.sink, ptr %11, align 1, !tbaa !14
  %indvars.iv.next = add nuw nsw i64 %indvars.iv, 1
  %exitcond.not = icmp eq i64 %indvars.iv.next, 8
  br i1 %exitcond.not, label %12, label %6, !llvm.loop !36

12:                                               ; preds = %6
  %13 = getelementptr inbounds i8, ptr %.01820, i64 %2
  %exitcond29.not = icmp eq i64 %indvars.iv.next27, 8
  br i1 %exitcond29.not, label %14, label %.preheader, !llvm.loop !37

14:                                               ; preds = %12
  ret void
}